; Function Attrs: nofree nosync nounwind memory(readwrite, inaccessiblemem: none) uwtable
define void @Saig_ManMarkCone_rec(ptr noundef readonly captures(none) %0, ptr noundef %1) local_unnamed_addr #5 {
  %3 = getelementptr i8, ptr %0, i64 312
  %4 = icmp eq ptr %1, null
  br i1 %4, label %._crit_edge, label %.lr.ph

.lr.ph:                                           ; preds = %2, %tailrecurse
  %.tr1314 = phi ptr [ %13, %tailrecurse ], [ %1, %2 ]
  %.val = load i32, ptr %3, align 8
  %5 = getelementptr i8, ptr %.tr1314, i64 32
  %.val9 = load i32, ptr %5, align 8
  %.not = icmp eq i32 %.val9, %.val
  br i1 %.not, label %._crit_edge, label %tailrecurse

tailrecurse:                                      ; preds = %.lr.ph
  store i32 %.val, ptr %5, align 8
  %6 = getelementptr i8, ptr %.tr1314, i64 8
  %.val11 = load ptr, ptr %6, align 8
  %7 = ptrtoint ptr %.val11 to i64
  %8 = and i64 %7, -2
  %9 = inttoptr i64 %8 to ptr
  tail call void @Saig_ManMarkCone_rec(ptr noundef nonnull %0, ptr noundef %9)
  %10 = getelementptr i8, ptr %.tr1314, i64 16
  %.val12 = load ptr, ptr %10, align 8
  %11 = ptrtoint ptr %.val12 to i64
  %12 = and i64 %11, -2
  %13 = inttoptr i64 %12 to ptr
  %14 = icmp eq i64 %12, 0
  br i1 %14, label %._crit_edge, label %.lr.ph

._crit_edge:                                      ; preds = %tailrecurse, %.lr.ph, %2
  ret void
}